target datalayout = "e-m:e-p270:32:32-p271:32:32-p272:64:64-i64:64-i128:128-f80:128-n8:16:32:64-S128"
target triple = "x86_64-pc-linux-gnu"

%struct.rb_data_type_struct = type { ptr, %struct.anon, ptr, ptr, i64 }
%struct.anon = type { ptr, ptr, ptr, ptr, [1 x ptr] }

@ossl_x509store_type = internal constant %struct.rb_data_type_struct { ptr @.str.34, %struct.anon { ptr @ossl_x509store_mark, ptr @ossl_x509store_free, ptr null, ptr null, [1 x ptr] zeroinitializer }, ptr null, ptr null, i64 33 }, align 8
@rb_eRuntimeError = external global i64, align 8
@.str.2 = private unnamed_addr constant [26 x i8] c"STORE wasn't initialized!\00", align 1
@eX509StoreError = internal global i64 0, align 8
@.str.45 = private unnamed_addr constant [20 x i8] c"X509_STORE_add_cert\00", align 1

; Function Attrs: nounwind sspstrong uwtable
define internal i64 @ossl_x509store_add_cert(i64 noundef %0, i64 noundef %1) #0 {
  %3 = alloca i64, align 8
  %4 = alloca i64, align 8
  %5 = alloca ptr, align 8
  %6 = alloca ptr, align 8
  store i64 %0, ptr %3, align 8, !tbaa !6
  store i64 %1, ptr %4, align 8, !tbaa !6
  call void @llvm.lifetime.start.p0(i64 8, ptr %5) #12
  call void @llvm.lifetime.start.p0(i64 8, ptr %6) #12
  %7 = load i64, ptr %4, align 8, !tbaa !6
  %8 = call ptr @GetX509CertPtr(i64 noundef %7)
  store ptr %8, ptr %6, align 8, !tbaa !35
  br label %9

9:                                                ; preds = %2
  %10 = load i64, ptr %3, align 8, !tbaa !6
  %11 = call ptr @rb_check_typeddata(i64 noundef %10, ptr noundef @ossl_x509store_type)
  store ptr %11, ptr %5, align 8, !tbaa !25
  %12 = load ptr, ptr %5, align 8, !tbaa !25
  %13 = icmp ne ptr %12, null
  br i1 %13, label %16, label %14

14:                                               ; preds = %9
  %15 = load i64, ptr @rb_eRuntimeError, align 8, !tbaa !6
  call void (i64, ptr, ...) @ossl_raise(i64 noundef %15, ptr noundef @.str.2) #16
  unreachable

16:                                               ; preds = %9
  br label %17

17:                                               ; preds = %16
  br label %18

18:                                               ; preds = %17
  %19 = load ptr, ptr %5, align 8, !tbaa !25
  %20 = load ptr, ptr %6, align 8, !tbaa !35
  %21 = call i32 @X509_STORE_add_cert(ptr noundef %19, ptr noundef %20)
  %22 = icmp ne i32 %21, 1
  br i1 %22, label %23, label %25

23:                                               ; preds = %18
  %24 = load i64, ptr @eX509StoreError, align 8, !tbaa !6
  call void (i64, ptr, ...) @ossl_raise(i64 noundef %24, ptr noundef @.str.45) #16
  unreachable

25:                                               ; preds = %18
  %26 = load i64, ptr %3, align 8, !tbaa !6
  call void @llvm.lifetime.end.p0(i64 8, ptr %6) #12
  call void @llvm.lifetime.end.p0(i64 8, ptr %5) #12
  ret i64 %26
}